target datalayout = "e-m:e-p270:32:32-p271:32:32-p272:64:64-i64:64-i128:128-f80:128-n8:16:32:64-S128"
target triple = "x86_64-pc-linux-gnu"

%struct.AVFilterContext = type { ptr, ptr, ptr, ptr, ptr, i32, ptr, ptr, i32, ptr, ptr, i32, i32, ptr, ptr, ptr, ptr, i32, ptr, i32, i32 }
%struct.FFFilterContext = type { %struct.AVFilterContext, ptr, i32, i32, ptr, ptr, ptr }
%struct.FFFilter = type { %struct.AVFilter, i8, i8, i8, ptr, ptr, ptr, %union.anon.1, i32, i32, ptr, ptr }
%struct.AVFilter = type { ptr, ptr, ptr, ptr, ptr, i32 }
%union.anon.1 = type { ptr }

; Function Attrs: inlinehint nounwind uwtable
define internal ptr @fffilter(ptr noundef %0) #4 {
  %2 = alloca ptr, align 8
  store ptr %0, ptr %2, align 8, !tbaa !119
  %3 = load ptr, ptr %2, align 8, !tbaa !119
  ret ptr %3
}

; Function Attrs: nounwind uwtable
define ptr @ff_filter_alloc(ptr noundef %0, ptr noundef %1) #0 {
  %3 = alloca ptr, align 8
  %4 = alloca ptr, align 8
  %5 = alloca ptr, align 8
  %6 = alloca ptr, align 8
  %7 = alloca ptr, align 8
  %8 = alloca ptr, align 8
  %9 = alloca i32, align 4
  %10 = alloca i32, align 4
  store ptr %0, ptr %4, align 8, !tbaa !119
  store ptr %1, ptr %5, align 8, !tbaa !124
  call void @llvm.lifetime.start.p0(i64 8, ptr %6) #11
  call void @llvm.lifetime.start.p0(i64 8, ptr %7) #11
  call void @llvm.lifetime.start.p0(i64 8, ptr %8) #11
  %11 = load ptr, ptr %4, align 8, !tbaa !119
  %12 = call ptr @fffilter(ptr noundef %11)
  store ptr %12, ptr %8, align 8, !tbaa !135
  call void @llvm.lifetime.start.p0(i64 4, ptr %9) #11
  store i32 0, ptr %9, align 4, !tbaa !19
  %13 = load ptr, ptr %4, align 8, !tbaa !119
  %14 = icmp ne ptr %13, null
  br i1 %14, label %16, label %15

15:                                               ; preds = %2
  store ptr null, ptr %3, align 8
  store i32 1, ptr %10, align 4
  br label %199

16:                                               ; preds = %2
  %17 = call noalias ptr @av_mallocz(i64 noundef 192)
  store ptr %17, ptr %6, align 8, !tbaa !74
  %18 = load ptr, ptr %6, align 8, !tbaa !74
  %19 = icmp ne ptr %18, null
  br i1 %19, label %21, label %20

20:                                               ; preds = %16
  store ptr null, ptr %3, align 8
  store i32 1, ptr %10, align 4
  br label %199

21:                                               ; preds = %16
  %22 = load ptr, ptr %6, align 8, !tbaa !74
  %23 = getelementptr inbounds nuw %struct.FFFilterContext, ptr %22, i32 0, i32 0
  store ptr %23, ptr %7, align 8, !tbaa !4
  %24 = load ptr, ptr %7, align 8, !tbaa !4
  %25 = getelementptr inbounds nuw %struct.AVFilterContext, ptr %24, i32 0, i32 0
  store ptr @avfilter_class, ptr %25, align 8, !tbaa !137
  %26 = load ptr, ptr %4, align 8, !tbaa !119
  %27 = load ptr, ptr %7, align 8, !tbaa !4
  %28 = getelementptr inbounds nuw %struct.AVFilterContext, ptr %27, i32 0, i32 1
  store ptr %26, ptr %28, align 8, !tbaa !110
  %29 = load ptr, ptr %5, align 8, !tbaa !124
  %30 = icmp ne ptr %29, null
  br i1 %30, label %31, label %34

31:                                               ; preds = %21
  %32 = load ptr, ptr %5, align 8, !tbaa !124
  %33 = call noalias ptr @av_strdup(ptr noundef %32)
  br label %35

34:                                               ; preds = %21
  br label %35

35:                                               ; preds = %34, %31
  %36 = phi ptr [ %33, %31 ], [ null, %34 ]
  %37 = load ptr, ptr %7, align 8, !tbaa !4
  %38 = getelementptr inbounds nuw %struct.AVFilterContext, ptr %37, i32 0, i32 2
  store ptr %36, ptr %38, align 8, !tbaa !46
  %39 = load ptr, ptr %8, align 8, !tbaa !135
  %40 = getelementptr inbounds nuw %struct.FFFilter, ptr %39, i32 0, i32 8
  %41 = load i32, ptr %40, align 8, !tbaa !138
  %42 = icmp ne i32 %41, 0
  br i1 %42, label %43, label %57

43:                                               ; preds = %35
  %44 = load ptr, ptr %8, align 8, !tbaa !135
  %45 = getelementptr inbounds nuw %struct.FFFilter, ptr %44, i32 0, i32 8
  %46 = load i32, ptr %45, align 8, !tbaa !138
  %47 = sext i32 %46 to i64
  %48 = call noalias ptr @av_mallocz(i64 noundef %47)
  %49 = load ptr, ptr %7, align 8, !tbaa !4
  %50 = getelementptr inbounds nuw %struct.AVFilterContext, ptr %49, i32 0, i32 9
  store ptr %48, ptr %50, align 8, !tbaa !131
  %51 = load ptr, ptr %7, align 8, !tbaa !4
  %52 = getelementptr inbounds nuw %struct.AVFilterContext, ptr %51, i32 0, i32 9
  %53 = load ptr, ptr %52, align 8, !tbaa !131
  %54 = icmp ne ptr %53, null
  br i1 %54, label %56, label %55

55:                                               ; preds = %43
  br label %175

56:                                               ; preds = %43
  br label %57

57:                                               ; preds = %56, %35
  %58 = load ptr, ptr %8, align 8, !tbaa !135
  %59 = getelementptr inbounds nuw %struct.FFFilter, ptr %58, i32 0, i32 4
  %60 = load ptr, ptr %59, align 8, !tbaa !139
  %61 = icmp ne ptr %60, null
  br i1 %61, label %62, label %71

62:                                               ; preds = %57
  %63 = load ptr, ptr %8, align 8, !tbaa !135
  %64 = getelementptr inbounds nuw %struct.FFFilter, ptr %63, i32 0, i32 4
  %65 = load ptr, ptr %64, align 8, !tbaa !139
  %66 = load ptr, ptr %7, align 8, !tbaa !4
  %67 = call i32 %65(ptr noundef %66)
  %68 = icmp slt i32 %67, 0
  br i1 %68, label %69, label %70

69:                                               ; preds = %62
  br label %175

70:                                               ; preds = %62
  store i32 1, ptr %9, align 4, !tbaa !19
  br label %71

71:                                               ; preds = %70, %57
  %72 = load ptr, ptr %7, align 8, !tbaa !4
  call void @av_opt_set_defaults(ptr noundef %72)
  %73 = load ptr, ptr %4, align 8, !tbaa !119
  %74 = getelementptr inbounds nuw %struct.AVFilter, ptr %73, i32 0, i32 4
  %75 = load ptr, ptr %74, align 8, !tbaa !140
  %76 = icmp ne ptr %75, null
  br i1 %76, label %77, label %87

77:                                               ; preds = %71
  %78 = load ptr, ptr %4, align 8, !tbaa !119
  %79 = getelementptr inbounds nuw %struct.AVFilter, ptr %78, i32 0, i32 4
  %80 = load ptr, ptr %79, align 8, !tbaa !140
  %81 = load ptr, ptr %7, align 8, !tbaa !4
  %82 = getelementptr inbounds nuw %struct.AVFilterContext, ptr %81, i32 0, i32 9
  %83 = load ptr, ptr %82, align 8, !tbaa !131
  store ptr %80, ptr %83, align 8, !tbaa !141
  %84 = load ptr, ptr %7, align 8, !tbaa !4
  %85 = getelementptr inbounds nuw %struct.AVFilterContext, ptr %84, i32 0, i32 9
  %86 = load ptr, ptr %85, align 8, !tbaa !131
  call void @av_opt_set_defaults(ptr noundef %86)
  br label %87

87:                                               ; preds = %77, %71
  %88 = load ptr, ptr %6, align 8, !tbaa !74
  %89 = getelementptr inbounds nuw %struct.FFFilterContext, ptr %88, i32 0, i32 1
  store ptr @default_execute, ptr %89, align 8, !tbaa !142
  %90 = load ptr, ptr %8, align 8, !tbaa !135
  %91 = getelementptr inbounds nuw %struct.FFFilter, ptr %90, i32 0, i32 1
  %92 = load i8, ptr %91, align 8, !tbaa !134
  %93 = zext i8 %92 to i32
  %94 = load ptr, ptr %7, align 8, !tbaa !4
  %95 = getelementptr inbounds nuw %struct.AVFilterContext, ptr %94, i32 0, i32 5
  store i32 %93, ptr %95, align 8, !tbaa !37
  %96 = load ptr, ptr %7, align 8, !tbaa !4
  %97 = getelementptr inbounds nuw %struct.AVFilterContext, ptr %96, i32 0, i32 5
  %98 = load i32, ptr %97, align 8, !tbaa !37
  %99 = icmp ne i32 %98, 0
  br i1 %99, label %100, label %131

100:                                              ; preds = %87
  %101 = load ptr, ptr %4, align 8, !tbaa !119
  %102 = getelementptr inbounds nuw %struct.AVFilter, ptr %101, i32 0, i32 2
  %103 = load ptr, ptr %102, align 8, !tbaa !143
  %104 = load ptr, ptr %7, align 8, !tbaa !4
  %105 = getelementptr inbounds nuw %struct.AVFilterContext, ptr %104, i32 0, i32 5
  %106 = load i32, ptr %105, align 8, !tbaa !37
  %107 = zext i32 %106 to i64
  %108 = mul i64 %107, 48
  %109 = call ptr @av_memdup(ptr noundef %103, i64 noundef %108)
  %110 = load ptr, ptr %7, align 8, !tbaa !4
  %111 = getelementptr inbounds nuw %struct.AVFilterContext, ptr %110, i32 0, i32 3
  store ptr %109, ptr %111, align 8, !tbaa !45
  %112 = load ptr, ptr %7, align 8, !tbaa !4
  %113 = getelementptr inbounds nuw %struct.AVFilterContext, ptr %112, i32 0, i32 3
  %114 = load ptr, ptr %113, align 8, !tbaa !45
  %115 = icmp ne ptr %114, null
  br i1 %115, label %117, label %116

116:                                              ; preds = %100
  br label %175

117:                                              ; preds = %100
  %118 = load ptr, ptr %7, align 8, !tbaa !4
  %119 = getelementptr inbounds nuw %struct.AVFilterContext, ptr %118, i32 0, i32 5
  %120 = load i32, ptr %119, align 8, !tbaa !37
  %121 = zext i32 %120 to i64
  %122 = call noalias ptr @av_calloc(i64 noundef %121, i64 noundef 8)
  %123 = load ptr, ptr %7, align 8, !tbaa !4
  %124 = getelementptr inbounds nuw %struct.AVFilterContext, ptr %123, i32 0, i32 4
  store ptr %122, ptr %124, align 8, !tbaa !39
  %125 = load ptr, ptr %7, align 8, !tbaa !4
  %126 = getelementptr inbounds nuw %struct.AVFilterContext, ptr %125, i32 0, i32 4
  %127 = load ptr, ptr %126, align 8, !tbaa !39
  %128 = icmp ne ptr %127, null
  br i1 %128, label %130, label %129

129:                                              ; preds = %117
  br label %175

130:                                              ; preds = %117
  br label %131

131:                                              ; preds = %130, %87
  %132 = load ptr, ptr %8, align 8, !tbaa !135
  %133 = getelementptr inbounds nuw %struct.FFFilter, ptr %132, i32 0, i32 2
  %134 = load i8, ptr %133, align 1, !tbaa !133
  %135 = zext i8 %134 to i32
  %136 = load ptr, ptr %7, align 8, !tbaa !4
  %137 = getelementptr inbounds nuw %struct.AVFilterContext, ptr %136, i32 0, i32 8
  store i32 %135, ptr %137, align 8, !tbaa !36
  %138 = load ptr, ptr %7, align 8, !tbaa !4
  %139 = getelementptr inbounds nuw %struct.AVFilterContext, ptr %138, i32 0, i32 8
  %140 = load i32, ptr %139, align 8, !tbaa !36
  %141 = icmp ne i32 %140, 0
  br i1 %141, label %142, label %173

142:                                              ; preds = %131
  %143 = load ptr, ptr %4, align 8, !tbaa !119
  %144 = getelementptr inbounds nuw %struct.AVFilter, ptr %143, i32 0, i32 3
  %145 = load ptr, ptr %144, align 8, !tbaa !144
  %146 = load ptr, ptr %7, align 8, !tbaa !4
  %147 = getelementptr inbounds nuw %struct.AVFilterContext, ptr %146, i32 0, i32 8
  %148 = load i32, ptr %147, align 8, !tbaa !36
  %149 = zext i32 %148 to i64
  %150 = mul i64 %149, 48
  %151 = call ptr @av_memdup(ptr noundef %145, i64 noundef %150)
  %152 = load ptr, ptr %7, align 8, !tbaa !4
  %153 = getelementptr inbounds nuw %struct.AVFilterContext, ptr %152, i32 0, i32 6
  store ptr %151, ptr %153, align 8, !tbaa !43
  %154 = load ptr, ptr %7, align 8, !tbaa !4
  %155 = getelementptr inbounds nuw %struct.AVFilterContext, ptr %154, i32 0, i32 6
  %156 = load ptr, ptr %155, align 8, !tbaa !43
  %157 = icmp ne ptr %156, null
  br i1 %157, label %159, label %158

158:                                              ; preds = %142
  br label %175

159:                                              ; preds = %142
  %160 = load ptr, ptr %7, align 8, !tbaa !4
  %161 = getelementptr inbounds nuw %struct.AVFilterContext, ptr %160, i32 0, i32 8
  %162 = load i32, ptr %161, align 8, !tbaa !36
  %163 = zext i32 %162 to i64
  %164 = call noalias ptr @av_calloc(i64 noundef %163, i64 noundef 8)
  %165 = load ptr, ptr %7, align 8, !tbaa !4
  %166 = getelementptr inbounds nuw %struct.AVFilterContext, ptr %165, i32 0, i32 7
  store ptr %164, ptr %166, align 8, !tbaa !38
  %167 = load ptr, ptr %7, align 8, !tbaa !4
  %168 = getelementptr inbounds nuw %struct.AVFilterContext, ptr %167, i32 0, i32 7
  %169 = load ptr, ptr %168, align 8, !tbaa !38
  %170 = icmp ne ptr %169, null
  br i1 %170, label %172, label %171

171:                                              ; preds = %159
  br label %175

172:                                              ; preds = %159
  br label %173

173:                                              ; preds = %172, %131
  %174 = load ptr, ptr %7, align 8, !tbaa !4
  store ptr %174, ptr %3, align 8
  store i32 1, ptr %10, align 4
  br label %199

175:                                              ; preds = %171, %158, %129, %116, %69, %55
  %176 = load i32, ptr %9, align 4, !tbaa !19
  %177 = icmp ne i32 %176, 0
  br i1 %177, label %178, label %183

178:                                              ; preds = %175
  %179 = load ptr, ptr %8, align 8, !tbaa !135
  %180 = getelementptr inbounds nuw %struct.FFFilter, ptr %179, i32 0, i32 6
  %181 = load ptr, ptr %180, align 8, !tbaa !145
  %182 = load ptr, ptr %7, align 8, !tbaa !4
  call void %181(ptr noundef %182)
  br label %183

183:                                              ; preds = %178, %175
  %184 = load ptr, ptr %7, align 8, !tbaa !4
  %185 = getelementptr inbounds nuw %struct.AVFilterContext, ptr %184, i32 0, i32 4
  call void @av_freep(ptr noundef %185)
  %186 = load ptr, ptr %7, align 8, !tbaa !4
  %187 = getelementptr inbounds nuw %struct.AVFilterContext, ptr %186, i32 0, i32 3
  call void @av_freep(ptr noundef %187)
  %188 = load ptr, ptr %7, align 8, !tbaa !4
  %189 = getelementptr inbounds nuw %struct.AVFilterContext, ptr %188, i32 0, i32 5
  store i32 0, ptr %189, align 8, !tbaa !37
  %190 = load ptr, ptr %7, align 8, !tbaa !4
  %191 = getelementptr inbounds nuw %struct.AVFilterContext, ptr %190, i32 0, i32 7
  call void @av_freep(ptr noundef %191)
  %192 = load ptr, ptr %7, align 8, !tbaa !4
  %193 = getelementptr inbounds nuw %struct.AVFilterContext, ptr %192, i32 0, i32 6
  call void @av_freep(ptr noundef %193)
  %194 = load ptr, ptr %7, align 8, !tbaa !4
  %195 = getelementptr inbounds nuw %struct.AVFilterContext, ptr %194, i32 0, i32 8
  store i32 0, ptr %195, align 8, !tbaa !36
  %196 = load ptr, ptr %7, align 8, !tbaa !4
  %197 = getelementptr inbounds nuw %struct.AVFilterContext, ptr %196, i32 0, i32 9
  call void @av_freep(ptr noundef %197)
  %198 = load ptr, ptr %7, align 8, !tbaa !4
  call void @av_free(ptr noundef %198)
  store ptr null, ptr %3, align 8
  store i32 1, ptr %10, align 4
  br label %199

199:                                              ; preds = %183, %173, %20, %15
  call void @llvm.lifetime.end.p0(i64 4, ptr %9) #11
  call void @llvm.lifetime.end.p0(i64 8, ptr %8) #11
  call void @llvm.lifetime.end.p0(i64 8, ptr %7) #11
  call void @llvm.lifetime.end.p0(i64 8, ptr %6) #11
  %200 = load ptr, ptr %3, align 8
  ret ptr %200
}