; Function Attrs: nounwind uwtable
define ptr @ff_filter_alloc(ptr noundef %0, ptr noundef %1) local_unnamed_addr #0 {
  %.not = icmp eq ptr %0, null
  br i1 %.not, label %76, label %3

3:                                                ; preds = %2
  %4 = tail call noalias ptr @av_mallocz(i64 noundef 192) #15
  %.not64 = icmp eq ptr %4, null
  br i1 %.not64, label %76, label %5

5:                                                ; preds = %3
  store ptr @avfilter_class, ptr %4, align 8, !tbaa !110
  %6 = getelementptr inbounds nuw i8, ptr %4, i64 8
  store ptr %0, ptr %6, align 8, !tbaa !92
  %.not65 = icmp eq ptr %1, null
  br i1 %.not65, label %9, label %7

7:                                                ; preds = %5
  %8 = tail call noalias ptr @av_strdup(ptr noundef nonnull %1) #15
  br label %9

9:                                                ; preds = %5, %7
  %10 = phi ptr [ %8, %7 ], [ null, %5 ]
  %11 = getelementptr inbounds nuw i8, ptr %4, i64 16
  store ptr %10, ptr %11, align 8, !tbaa !37
  %12 = getelementptr inbounds nuw i8, ptr %0, i64 88
  %13 = load i32, ptr %12, align 8, !tbaa !111
  %.not66 = icmp eq i32 %13, 0
  br i1 %.not66, label %18, label %14

14:                                               ; preds = %9
  %15 = sext i32 %13 to i64
  %16 = tail call noalias ptr @av_mallocz(i64 noundef %15) #15
  %17 = getelementptr inbounds nuw i8, ptr %4, i64 72
  store ptr %16, ptr %17, align 8, !tbaa !107
  %.not67 = icmp eq ptr %16, null
  br i1 %.not67, label %.thread, label %18

18:                                               ; preds = %14, %9
  %19 = getelementptr inbounds nuw i8, ptr %0, i64 56
  %20 = load ptr, ptr %19, align 8, !tbaa !112
  %.not68 = icmp eq ptr %20, null
  br i1 %.not68, label %24, label %21

21:                                               ; preds = %18
  %22 = tail call i32 %20(ptr noundef nonnull %4) #15
  %23 = icmp slt i32 %22, 0
  br i1 %23, label %.thread, label %24

24:                                               ; preds = %21, %18
  tail call void @av_opt_set_defaults(ptr noundef nonnull %4) #15
  %25 = getelementptr inbounds nuw i8, ptr %0, i64 32
  %26 = load ptr, ptr %25, align 8, !tbaa !113
  %.not69 = icmp eq ptr %26, null
  br i1 %.not69, label %30, label %27

27:                                               ; preds = %24
  %28 = getelementptr inbounds nuw i8, ptr %4, i64 72
  %29 = load ptr, ptr %28, align 8, !tbaa !107
  store ptr %26, ptr %29, align 8, !tbaa !114
  tail call void @av_opt_set_defaults(ptr noundef nonnull %29) #15
  br label %30

30:                                               ; preds = %27, %24
  %31 = getelementptr inbounds nuw i8, ptr %4, i64 152
  store ptr @default_execute, ptr %31, align 8, !tbaa !115
  %32 = getelementptr inbounds nuw i8, ptr %0, i64 48
  %33 = load i8, ptr %32, align 8, !tbaa !116
  %34 = zext i8 %33 to i32
  %35 = getelementptr inbounds nuw i8, ptr %4, i64 40
  store i32 %34, ptr %35, align 8, !tbaa !28
  %.not70 = icmp eq i8 %33, 0
  br i1 %.not70, label %48, label %36

36:                                               ; preds = %30
  %37 = getelementptr inbounds nuw i8, ptr %0, i64 16
  %38 = load ptr, ptr %37, align 8, !tbaa !117
  %39 = zext i8 %33 to i64
  %40 = mul nuw nsw i64 %39, 48
  %41 = tail call ptr @av_memdup(ptr noundef %38, i64 noundef %40) #15
  %42 = getelementptr inbounds nuw i8, ptr %4, i64 24
  store ptr %41, ptr %42, align 8, !tbaa !36
  %.not71 = icmp eq ptr %41, null
  br i1 %.not71, label %65, label %43

43:                                               ; preds = %36
  %44 = load i32, ptr %35, align 8, !tbaa !28
  %45 = zext i32 %44 to i64
  %46 = tail call noalias ptr @av_calloc(i64 noundef %45, i64 noundef 8) #15
  %47 = getelementptr inbounds nuw i8, ptr %4, i64 32
  store ptr %46, ptr %47, align 8, !tbaa !30
  %.not72 = icmp eq ptr %46, null
  br i1 %.not72, label %65, label %48

48:                                               ; preds = %43, %30
  %49 = getelementptr inbounds nuw i8, ptr %0, i64 49
  %50 = load i8, ptr %49, align 1, !tbaa !118
  %51 = zext i8 %50 to i32
  %52 = getelementptr inbounds nuw i8, ptr %4, i64 64
  store i32 %51, ptr %52, align 8, !tbaa !27
  %.not73 = icmp eq i8 %50, 0
  br i1 %.not73, label %76, label %53

53:                                               ; preds = %48
  %54 = getelementptr inbounds nuw i8, ptr %0, i64 24
  %55 = load ptr, ptr %54, align 8, !tbaa !119
  %56 = zext i8 %50 to i64
  %57 = mul nuw nsw i64 %56, 48
  %58 = tail call ptr @av_memdup(ptr noundef %55, i64 noundef %57) #15
  %59 = getelementptr inbounds nuw i8, ptr %4, i64 48
  store ptr %58, ptr %59, align 8, !tbaa !34
  %.not74 = icmp eq ptr %58, null
  br i1 %.not74, label %65, label %60

60:                                               ; preds = %53
  %61 = load i32, ptr %52, align 8, !tbaa !27
  %62 = zext i32 %61 to i64
  %63 = tail call noalias ptr @av_calloc(i64 noundef %62, i64 noundef 8) #15
  %64 = getelementptr inbounds nuw i8, ptr %4, i64 56
  store ptr %63, ptr %64, align 8, !tbaa !29
  %.not75 = icmp eq ptr %63, null
  br i1 %.not75, label %65, label %76

65:                                               ; preds = %60, %53, %43, %36
  br i1 %.not68, label %.thread, label %66

66:                                               ; preds = %65
  %67 = getelementptr inbounds nuw i8, ptr %0, i64 72
  %68 = load ptr, ptr %67, align 8, !tbaa !120
  tail call void %68(ptr noundef nonnull %4) #15
  br label %.thread

.thread:                                          ; preds = %14, %21, %66, %65
  %69 = getelementptr inbounds nuw i8, ptr %4, i64 32
  tail call void @av_freep(ptr noundef nonnull %69) #15
  %70 = getelementptr inbounds nuw i8, ptr %4, i64 24
  tail call void @av_freep(ptr noundef nonnull %70) #15
  %71 = getelementptr inbounds nuw i8, ptr %4, i64 40
  store i32 0, ptr %71, align 8, !tbaa !28
  %72 = getelementptr inbounds nuw i8, ptr %4, i64 56
  tail call void @av_freep(ptr noundef nonnull %72) #15
  %73 = getelementptr inbounds nuw i8, ptr %4, i64 48
  tail call void @av_freep(ptr noundef nonnull %73) #15
  %74 = getelementptr inbounds nuw i8, ptr %4, i64 64
  store i32 0, ptr %74, align 8, !tbaa !27
  %75 = getelementptr inbounds nuw i8, ptr %4, i64 72
  tail call void @av_freep(ptr noundef nonnull %75) #15
  tail call void @av_free(ptr noundef nonnull %4) #15
  br label %76

76:                                               ; preds = %48, %60, %3, %2, %.thread
  %.055 = phi ptr [ null, %.thread ], [ null, %2 ], [ null, %3 ], [ %4, %60 ], [ %4, %48 ]
  ret ptr %.055
}